ARM GAS  /tmp/ccHpN2rC.s 			page 1


   1              		.cpu cortex-m4
   2              		.arch armv7e-m
   3              		.fpu fpv4-sp-d16
   4              		.eabi_attribute 27, 1
   5              		.eabi_attribute 28, 1
   6              		.eabi_attribute 20, 1
   7              		.eabi_attribute 21, 1
   8              		.eabi_attribute 23, 3
   9              		.eabi_attribute 24, 1
  10              		.eabi_attribute 25, 1
  11              		.eabi_attribute 26, 1
  12              		.eabi_attribute 30, 1
  13              		.eabi_attribute 34, 1
  14              		.eabi_attribute 18, 4
  15              		.file	"adc.c"
  16              		.text
  17              	.Ltext0:
  18              		.cfi_sections	.debug_frame
  19              		.file 1 "Core/Src/Communication/adc.c"
  20              		.section	.text.MX_ADC1_Init,"ax",%progbits
  21              		.align	1
  22              		.global	MX_ADC1_Init
  23              		.syntax unified
  24              		.thumb
  25              		.thumb_func
  27              	MX_ADC1_Init:
  28              	.LFB220:
   1:Core/Src/Communication/adc.c **** /* USER CODE BEGIN Header */
   2:Core/Src/Communication/adc.c **** /**
   3:Core/Src/Communication/adc.c ****   ******************************************************************************
   4:Core/Src/Communication/adc.c ****   * @file    adc.c
   5:Core/Src/Communication/adc.c ****   * @brief   This file provides code for the configuration
   6:Core/Src/Communication/adc.c ****   *          of the ADC instances.
   7:Core/Src/Communication/adc.c ****   ******************************************************************************
   8:Core/Src/Communication/adc.c ****   * @attention
   9:Core/Src/Communication/adc.c ****   *
  10:Core/Src/Communication/adc.c ****   * Copyright (c) 2024 STMicroelectronics.
  11:Core/Src/Communication/adc.c ****   * All rights reserved.
  12:Core/Src/Communication/adc.c ****   *
  13:Core/Src/Communication/adc.c ****   * This software is licensed under terms that can be found in the LICENSE file
  14:Core/Src/Communication/adc.c ****   * in the root directory of this software component.
  15:Core/Src/Communication/adc.c ****   * If no LICENSE file comes with this software, it is provided AS-IS.
  16:Core/Src/Communication/adc.c ****   *
  17:Core/Src/Communication/adc.c ****   ******************************************************************************
  18:Core/Src/Communication/adc.c ****   */
  19:Core/Src/Communication/adc.c **** #include "Communication/adc.h"
  20:Core/Src/Communication/adc.c **** 
  21:Core/Src/Communication/adc.c **** ADC_HandleTypeDef hadc1;
  22:Core/Src/Communication/adc.c **** 
  23:Core/Src/Communication/adc.c **** /* ADC1 init function */
  24:Core/Src/Communication/adc.c **** void MX_ADC1_Init(void) {
  29              		.loc 1 24 25 view -0
  30              		.cfi_startproc
  31              		@ args = 0, pretend = 0, frame = 16
  32              		@ frame_needed = 0, uses_anonymous_args = 0
  33 0000 00B5     		push	{lr}
  34              	.LCFI0:
ARM GAS  /tmp/ccHpN2rC.s 			page 2


  35              		.cfi_def_cfa_offset 4
  36              		.cfi_offset 14, -4
  37 0002 85B0     		sub	sp, sp, #20
  38              	.LCFI1:
  39              		.cfi_def_cfa_offset 24
  25:Core/Src/Communication/adc.c ****   ADC_ChannelConfTypeDef sConfig = {0};
  40              		.loc 1 25 3 view .LVU1
  41              		.loc 1 25 26 is_stmt 0 view .LVU2
  42 0004 0023     		movs	r3, #0
  43 0006 0093     		str	r3, [sp]
  44 0008 0193     		str	r3, [sp, #4]
  45 000a 0293     		str	r3, [sp, #8]
  46 000c 0393     		str	r3, [sp, #12]
  26:Core/Src/Communication/adc.c **** 
  27:Core/Src/Communication/adc.c ****   /** Configure the global features of the ADC (Clock, Resolution, Data Alignment and number of con
  28:Core/Src/Communication/adc.c ****   */
  29:Core/Src/Communication/adc.c ****   hadc1.Instance = ADC1;
  47              		.loc 1 29 3 is_stmt 1 view .LVU3
  48              		.loc 1 29 18 is_stmt 0 view .LVU4
  49 000e 1548     		ldr	r0, .L7
  50 0010 154A     		ldr	r2, .L7+4
  51 0012 0260     		str	r2, [r0]
  30:Core/Src/Communication/adc.c ****   hadc1.Init.ClockPrescaler = ADC_CLOCK_SYNC_PCLK_DIV4;
  52              		.loc 1 30 3 is_stmt 1 view .LVU5
  53              		.loc 1 30 29 is_stmt 0 view .LVU6
  54 0014 4FF48032 		mov	r2, #65536
  55 0018 4260     		str	r2, [r0, #4]
  31:Core/Src/Communication/adc.c ****   hadc1.Init.Resolution = ADC_RESOLUTION_12B;
  56              		.loc 1 31 3 is_stmt 1 view .LVU7
  57              		.loc 1 31 25 is_stmt 0 view .LVU8
  58 001a 8360     		str	r3, [r0, #8]
  32:Core/Src/Communication/adc.c ****   hadc1.Init.ScanConvMode = DISABLE;
  59              		.loc 1 32 3 is_stmt 1 view .LVU9
  60              		.loc 1 32 27 is_stmt 0 view .LVU10
  61 001c 0361     		str	r3, [r0, #16]
  33:Core/Src/Communication/adc.c ****   hadc1.Init.ContinuousConvMode = DISABLE;
  62              		.loc 1 33 3 is_stmt 1 view .LVU11
  63              		.loc 1 33 33 is_stmt 0 view .LVU12
  64 001e 0376     		strb	r3, [r0, #24]
  34:Core/Src/Communication/adc.c ****   hadc1.Init.DiscontinuousConvMode = DISABLE;
  65              		.loc 1 34 3 is_stmt 1 view .LVU13
  66              		.loc 1 34 36 is_stmt 0 view .LVU14
  67 0020 80F82030 		strb	r3, [r0, #32]
  35:Core/Src/Communication/adc.c ****   hadc1.Init.ExternalTrigConvEdge = ADC_EXTERNALTRIGCONVEDGE_NONE;
  68              		.loc 1 35 3 is_stmt 1 view .LVU15
  69              		.loc 1 35 35 is_stmt 0 view .LVU16
  70 0024 C362     		str	r3, [r0, #44]
  36:Core/Src/Communication/adc.c ****   hadc1.Init.ExternalTrigConv = ADC_SOFTWARE_START;
  71              		.loc 1 36 3 is_stmt 1 view .LVU17
  72              		.loc 1 36 31 is_stmt 0 view .LVU18
  73 0026 114A     		ldr	r2, .L7+8
  74 0028 8262     		str	r2, [r0, #40]
  37:Core/Src/Communication/adc.c ****   hadc1.Init.DataAlign = ADC_DATAALIGN_RIGHT;
  75              		.loc 1 37 3 is_stmt 1 view .LVU19
  76              		.loc 1 37 24 is_stmt 0 view .LVU20
  77 002a C360     		str	r3, [r0, #12]
  38:Core/Src/Communication/adc.c ****   hadc1.Init.NbrOfConversion = 1;
ARM GAS  /tmp/ccHpN2rC.s 			page 3


  78              		.loc 1 38 3 is_stmt 1 view .LVU21
  79              		.loc 1 38 30 is_stmt 0 view .LVU22
  80 002c 0122     		movs	r2, #1
  81 002e C261     		str	r2, [r0, #28]
  39:Core/Src/Communication/adc.c ****   hadc1.Init.DMAContinuousRequests = DISABLE;
  82              		.loc 1 39 3 is_stmt 1 view .LVU23
  83              		.loc 1 39 36 is_stmt 0 view .LVU24
  84 0030 80F83030 		strb	r3, [r0, #48]
  40:Core/Src/Communication/adc.c ****   hadc1.Init.EOCSelection = ADC_EOC_SINGLE_CONV;
  85              		.loc 1 40 3 is_stmt 1 view .LVU25
  86              		.loc 1 40 27 is_stmt 0 view .LVU26
  87 0034 4261     		str	r2, [r0, #20]
  41:Core/Src/Communication/adc.c ****   if (HAL_ADC_Init(&hadc1) != HAL_OK) Error_Handler();
  88              		.loc 1 41 3 is_stmt 1 view .LVU27
  89              		.loc 1 41 7 is_stmt 0 view .LVU28
  90 0036 FFF7FEFF 		bl	HAL_ADC_Init
  91              	.LVL0:
  92              		.loc 1 41 6 view .LVU29
  93 003a 60B9     		cbnz	r0, .L5
  94              	.L2:
  42:Core/Src/Communication/adc.c **** 
  43:Core/Src/Communication/adc.c ****   /** Configure for the selected ADC regular channel its corresponding rank in the sequencer and it
  44:Core/Src/Communication/adc.c ****   */
  45:Core/Src/Communication/adc.c ****   sConfig.Channel = ADC_CHANNEL_1;
  95              		.loc 1 45 3 is_stmt 1 view .LVU30
  96              		.loc 1 45 19 is_stmt 0 view .LVU31
  97 003c 0123     		movs	r3, #1
  98 003e 0093     		str	r3, [sp]
  46:Core/Src/Communication/adc.c ****   sConfig.Rank = 1;
  99              		.loc 1 46 3 is_stmt 1 view .LVU32
 100              		.loc 1 46 16 is_stmt 0 view .LVU33
 101 0040 0193     		str	r3, [sp, #4]
  47:Core/Src/Communication/adc.c ****   sConfig.SamplingTime = ADC_SAMPLETIME_3CYCLES;
 102              		.loc 1 47 3 is_stmt 1 view .LVU34
 103              		.loc 1 47 24 is_stmt 0 view .LVU35
 104 0042 0023     		movs	r3, #0
 105 0044 0293     		str	r3, [sp, #8]
  48:Core/Src/Communication/adc.c ****   if (HAL_ADC_ConfigChannel(&hadc1, &sConfig) != HAL_OK) Error_Handler();
 106              		.loc 1 48 3 is_stmt 1 view .LVU36
 107              		.loc 1 48 7 is_stmt 0 view .LVU37
 108 0046 6946     		mov	r1, sp
 109 0048 0648     		ldr	r0, .L7
 110 004a FFF7FEFF 		bl	HAL_ADC_ConfigChannel
 111              	.LVL1:
 112              		.loc 1 48 6 view .LVU38
 113 004e 28B9     		cbnz	r0, .L6
 114              	.L1:
  49:Core/Src/Communication/adc.c **** }
 115              		.loc 1 49 1 view .LVU39
 116 0050 05B0     		add	sp, sp, #20
 117              	.LCFI2:
 118              		.cfi_remember_state
 119              		.cfi_def_cfa_offset 4
 120              		@ sp needed
 121 0052 5DF804FB 		ldr	pc, [sp], #4
 122              	.L5:
 123              	.LCFI3:
ARM GAS  /tmp/ccHpN2rC.s 			page 4


 124              		.cfi_restore_state
  41:Core/Src/Communication/adc.c **** 
 125              		.loc 1 41 39 is_stmt 1 discriminator 1 view .LVU40
 126 0056 FFF7FEFF 		bl	Error_Handler
 127              	.LVL2:
 128 005a EFE7     		b	.L2
 129              	.L6:
  48:Core/Src/Communication/adc.c ****   if (HAL_ADC_ConfigChannel(&hadc1, &sConfig) != HAL_OK) Error_Handler();
 130              		.loc 1 48 58 discriminator 1 view .LVU41
 131 005c FFF7FEFF 		bl	Error_Handler
 132              	.LVL3:
 133              		.loc 1 49 1 is_stmt 0 discriminator 1 view .LVU42
 134 0060 F6E7     		b	.L1
 135              	.L8:
 136 0062 00BF     		.align	2
 137              	.L7:
 138 0064 00000000 		.word	hadc1
 139 0068 00200140 		.word	1073815552
 140 006c 0100000F 		.word	251658241
 141              		.cfi_endproc
 142              	.LFE220:
 144              		.section	.text.HAL_ADC_MspInit,"ax",%progbits
 145              		.align	1
 146              		.global	HAL_ADC_MspInit
 147              		.syntax unified
 148              		.thumb
 149              		.thumb_func
 151              	HAL_ADC_MspInit:
 152              	.LVL4:
 153              	.LFB221:
  50:Core/Src/Communication/adc.c **** 
  51:Core/Src/Communication/adc.c **** void HAL_ADC_MspInit(ADC_HandleTypeDef* adcHandle) {
 154              		.loc 1 51 52 is_stmt 1 view -0
 155              		.cfi_startproc
 156              		@ args = 0, pretend = 0, frame = 32
 157              		@ frame_needed = 0, uses_anonymous_args = 0
 158              		.loc 1 51 52 is_stmt 0 view .LVU44
 159 0000 00B5     		push	{lr}
 160              	.LCFI4:
 161              		.cfi_def_cfa_offset 4
 162              		.cfi_offset 14, -4
 163 0002 89B0     		sub	sp, sp, #36
 164              	.LCFI5:
 165              		.cfi_def_cfa_offset 40
  52:Core/Src/Communication/adc.c ****   GPIO_InitTypeDef GPIO_InitStruct = {0};
 166              		.loc 1 52 3 is_stmt 1 view .LVU45
 167              		.loc 1 52 20 is_stmt 0 view .LVU46
 168 0004 0023     		movs	r3, #0
 169 0006 0393     		str	r3, [sp, #12]
 170 0008 0493     		str	r3, [sp, #16]
 171 000a 0593     		str	r3, [sp, #20]
 172 000c 0693     		str	r3, [sp, #24]
 173 000e 0793     		str	r3, [sp, #28]
  53:Core/Src/Communication/adc.c ****   if(adcHandle->Instance==ADC1) {
 174              		.loc 1 53 3 is_stmt 1 view .LVU47
 175              		.loc 1 53 15 is_stmt 0 view .LVU48
 176 0010 0268     		ldr	r2, [r0]
ARM GAS  /tmp/ccHpN2rC.s 			page 5


 177              		.loc 1 53 5 view .LVU49
 178 0012 03F18043 		add	r3, r3, #1073741824
 179 0016 03F59033 		add	r3, r3, #73728
 180 001a 9A42     		cmp	r2, r3
 181 001c 02D0     		beq	.L12
 182              	.LVL5:
 183              	.L9:
  54:Core/Src/Communication/adc.c ****     /* ADC1 clock enable */
  55:Core/Src/Communication/adc.c ****     __HAL_RCC_ADC1_CLK_ENABLE();
  56:Core/Src/Communication/adc.c **** 
  57:Core/Src/Communication/adc.c ****     __HAL_RCC_GPIOA_CLK_ENABLE();
  58:Core/Src/Communication/adc.c ****     /**ADC1 GPIO Configuration
  59:Core/Src/Communication/adc.c ****     PA1     ------> ADC1_IN1
  60:Core/Src/Communication/adc.c ****     */
  61:Core/Src/Communication/adc.c ****     GPIO_InitStruct.Pin = GPIO_PIN_1;
  62:Core/Src/Communication/adc.c ****     GPIO_InitStruct.Mode = GPIO_MODE_ANALOG;
  63:Core/Src/Communication/adc.c ****     GPIO_InitStruct.Pull = GPIO_NOPULL;
  64:Core/Src/Communication/adc.c ****     HAL_GPIO_Init(GPIOA, &GPIO_InitStruct);
  65:Core/Src/Communication/adc.c **** 
  66:Core/Src/Communication/adc.c ****     /* ADC1 interrupt Init */
  67:Core/Src/Communication/adc.c ****     //HAL_NVIC_SetPriority(ADC_IRQn, 5, 0);
  68:Core/Src/Communication/adc.c ****     //HAL_NVIC_EnableIRQ(ADC_IRQn);
  69:Core/Src/Communication/adc.c ****   }
  70:Core/Src/Communication/adc.c **** }
 184              		.loc 1 70 1 view .LVU50
 185 001e 09B0     		add	sp, sp, #36
 186              	.LCFI6:
 187              		.cfi_remember_state
 188              		.cfi_def_cfa_offset 4
 189              		@ sp needed
 190 0020 5DF804FB 		ldr	pc, [sp], #4
 191              	.LVL6:
 192              	.L12:
 193              	.LCFI7:
 194              		.cfi_restore_state
  55:Core/Src/Communication/adc.c **** 
 195              		.loc 1 55 5 is_stmt 1 view .LVU51
 196              	.LBB2:
  55:Core/Src/Communication/adc.c **** 
 197              		.loc 1 55 5 view .LVU52
 198 0024 0021     		movs	r1, #0
 199 0026 0191     		str	r1, [sp, #4]
  55:Core/Src/Communication/adc.c **** 
 200              		.loc 1 55 5 view .LVU53
 201 0028 03F58C33 		add	r3, r3, #71680
 202 002c 5A6C     		ldr	r2, [r3, #68]
 203 002e 42F48072 		orr	r2, r2, #256
 204 0032 5A64     		str	r2, [r3, #68]
  55:Core/Src/Communication/adc.c **** 
 205              		.loc 1 55 5 view .LVU54
 206 0034 5A6C     		ldr	r2, [r3, #68]
 207 0036 02F48072 		and	r2, r2, #256
 208 003a 0192     		str	r2, [sp, #4]
  55:Core/Src/Communication/adc.c **** 
 209              		.loc 1 55 5 view .LVU55
 210 003c 019A     		ldr	r2, [sp, #4]
 211              	.LBE2:
ARM GAS  /tmp/ccHpN2rC.s 			page 6


  55:Core/Src/Communication/adc.c **** 
 212              		.loc 1 55 5 view .LVU56
  57:Core/Src/Communication/adc.c ****     /**ADC1 GPIO Configuration
 213              		.loc 1 57 5 view .LVU57
 214              	.LBB3:
  57:Core/Src/Communication/adc.c ****     /**ADC1 GPIO Configuration
 215              		.loc 1 57 5 view .LVU58
 216 003e 0291     		str	r1, [sp, #8]
  57:Core/Src/Communication/adc.c ****     /**ADC1 GPIO Configuration
 217              		.loc 1 57 5 view .LVU59
 218 0040 1A6B     		ldr	r2, [r3, #48]
 219 0042 42F00102 		orr	r2, r2, #1
 220 0046 1A63     		str	r2, [r3, #48]
  57:Core/Src/Communication/adc.c ****     /**ADC1 GPIO Configuration
 221              		.loc 1 57 5 view .LVU60
 222 0048 1B6B     		ldr	r3, [r3, #48]
 223 004a 03F00103 		and	r3, r3, #1
 224 004e 0293     		str	r3, [sp, #8]
  57:Core/Src/Communication/adc.c ****     /**ADC1 GPIO Configuration
 225              		.loc 1 57 5 view .LVU61
 226 0050 029B     		ldr	r3, [sp, #8]
 227              	.LBE3:
  57:Core/Src/Communication/adc.c ****     /**ADC1 GPIO Configuration
 228              		.loc 1 57 5 view .LVU62
  61:Core/Src/Communication/adc.c ****     GPIO_InitStruct.Mode = GPIO_MODE_ANALOG;
 229              		.loc 1 61 5 view .LVU63
  61:Core/Src/Communication/adc.c ****     GPIO_InitStruct.Mode = GPIO_MODE_ANALOG;
 230              		.loc 1 61 25 is_stmt 0 view .LVU64
 231 0052 0223     		movs	r3, #2
 232 0054 0393     		str	r3, [sp, #12]
  62:Core/Src/Communication/adc.c ****     GPIO_InitStruct.Pull = GPIO_NOPULL;
 233              		.loc 1 62 5 is_stmt 1 view .LVU65
  62:Core/Src/Communication/adc.c ****     GPIO_InitStruct.Pull = GPIO_NOPULL;
 234              		.loc 1 62 26 is_stmt 0 view .LVU66
 235 0056 0323     		movs	r3, #3
 236 0058 0493     		str	r3, [sp, #16]
  63:Core/Src/Communication/adc.c ****     HAL_GPIO_Init(GPIOA, &GPIO_InitStruct);
 237              		.loc 1 63 5 is_stmt 1 view .LVU67
  64:Core/Src/Communication/adc.c **** 
 238              		.loc 1 64 5 view .LVU68
 239 005a 03A9     		add	r1, sp, #12
 240 005c 0148     		ldr	r0, .L13
 241              	.LVL7:
  64:Core/Src/Communication/adc.c **** 
 242              		.loc 1 64 5 is_stmt 0 view .LVU69
 243 005e FFF7FEFF 		bl	HAL_GPIO_Init
 244              	.LVL8:
 245              		.loc 1 70 1 view .LVU70
 246 0062 DCE7     		b	.L9
 247              	.L14:
 248              		.align	2
 249              	.L13:
 250 0064 00000240 		.word	1073872896
 251              		.cfi_endproc
 252              	.LFE221:
 254              		.section	.text.HAL_ADC_MspDeInit,"ax",%progbits
 255              		.align	1
ARM GAS  /tmp/ccHpN2rC.s 			page 7


 256              		.global	HAL_ADC_MspDeInit
 257              		.syntax unified
 258              		.thumb
 259              		.thumb_func
 261              	HAL_ADC_MspDeInit:
 262              	.LVL9:
 263              	.LFB222:
  71:Core/Src/Communication/adc.c **** 
  72:Core/Src/Communication/adc.c **** void HAL_ADC_MspDeInit(ADC_HandleTypeDef* adcHandle) {
 264              		.loc 1 72 54 is_stmt 1 view -0
 265              		.cfi_startproc
 266              		@ args = 0, pretend = 0, frame = 0
 267              		@ frame_needed = 0, uses_anonymous_args = 0
 268              		.loc 1 72 54 is_stmt 0 view .LVU72
 269 0000 08B5     		push	{r3, lr}
 270              	.LCFI8:
 271              		.cfi_def_cfa_offset 8
 272              		.cfi_offset 3, -8
 273              		.cfi_offset 14, -4
  73:Core/Src/Communication/adc.c ****   if(adcHandle->Instance==ADC1) {
 274              		.loc 1 73 3 is_stmt 1 view .LVU73
 275              		.loc 1 73 15 is_stmt 0 view .LVU74
 276 0002 0268     		ldr	r2, [r0]
 277              		.loc 1 73 5 view .LVU75
 278 0004 064B     		ldr	r3, .L19
 279 0006 9A42     		cmp	r2, r3
 280 0008 00D0     		beq	.L18
 281              	.LVL10:
 282              	.L15:
  74:Core/Src/Communication/adc.c ****     /* Peripheral clock disable */
  75:Core/Src/Communication/adc.c ****     __HAL_RCC_ADC1_CLK_DISABLE();
  76:Core/Src/Communication/adc.c **** 
  77:Core/Src/Communication/adc.c ****     /**ADC1 GPIO Configuration
  78:Core/Src/Communication/adc.c ****     PA1     ------> ADC1_IN1
  79:Core/Src/Communication/adc.c ****     */
  80:Core/Src/Communication/adc.c ****     HAL_GPIO_DeInit(GPIOA, GPIO_PIN_1);
  81:Core/Src/Communication/adc.c **** 
  82:Core/Src/Communication/adc.c ****     /* ADC1 interrupt Deinit */
  83:Core/Src/Communication/adc.c ****     //HAL_NVIC_DisableIRQ(ADC_IRQn);
  84:Core/Src/Communication/adc.c ****   }
  85:Core/Src/Communication/adc.c **** }
 283              		.loc 1 85 1 view .LVU76
 284 000a 08BD     		pop	{r3, pc}
 285              	.LVL11:
 286              	.L18:
  75:Core/Src/Communication/adc.c **** 
 287              		.loc 1 75 5 is_stmt 1 view .LVU77
 288 000c 054A     		ldr	r2, .L19+4
 289 000e 536C     		ldr	r3, [r2, #68]
 290 0010 23F48073 		bic	r3, r3, #256
 291 0014 5364     		str	r3, [r2, #68]
  80:Core/Src/Communication/adc.c **** 
 292              		.loc 1 80 5 view .LVU78
 293 0016 0221     		movs	r1, #2
 294 0018 0348     		ldr	r0, .L19+8
 295              	.LVL12:
  80:Core/Src/Communication/adc.c **** 
ARM GAS  /tmp/ccHpN2rC.s 			page 8


 296              		.loc 1 80 5 is_stmt 0 view .LVU79
 297 001a FFF7FEFF 		bl	HAL_GPIO_DeInit
 298              	.LVL13:
 299              		.loc 1 85 1 view .LVU80
 300 001e F4E7     		b	.L15
 301              	.L20:
 302              		.align	2
 303              	.L19:
 304 0020 00200140 		.word	1073815552
 305 0024 00380240 		.word	1073887232
 306 0028 00000240 		.word	1073872896
 307              		.cfi_endproc
 308              	.LFE222:
 310              		.global	hadc1
 311              		.section	.bss.hadc1,"aw",%nobits
 312              		.align	2
 315              	hadc1:
 316 0000 00000000 		.space	72
 316      00000000 
 316      00000000 
 316      00000000 
 316      00000000 
 317              		.text
 318              	.Letext0:
 319              		.file 2 "/opt/gcc-arm-none-eabi/arm-none-eabi/include/machine/_default_types.h"
 320              		.file 3 "/opt/gcc-arm-none-eabi/arm-none-eabi/include/sys/_stdint.h"
 321              		.file 4 "Drivers/CMSIS/Device/ST/STM32F4xx/Include/stm32f401xe.h"
 322              		.file 5 "Drivers/CMSIS/Device/ST/STM32F4xx/Include/stm32f4xx.h"
 323              		.file 6 "Drivers/STM32F4xx_HAL_Driver/Inc/stm32f4xx_hal_def.h"
 324              		.file 7 "Drivers/STM32F4xx_HAL_Driver/Inc/stm32f4xx_hal_gpio.h"
 325              		.file 8 "Drivers/STM32F4xx_HAL_Driver/Inc/stm32f4xx_hal_dma.h"
 326              		.file 9 "Drivers/STM32F4xx_HAL_Driver/Inc/stm32f4xx_hal_adc.h"
 327              		.file 10 "Core/Inc/Communication/adc.h"
 328              		.file 11 "Core/Inc/main.h"
ARM GAS  /tmp/ccHpN2rC.s 			page 9

